Certificate:
    Data:
        Version: 3 (0x2)
        Serial Number: 2 (0x2)
    Signature Algorithm: sha256WithRSAEncryption
        Issuer: C=EG, ST=Cairo, L=Cairo, O=QuickStor, OU=QStor, CN=QuickStor CA/name=EasyRSA/emailAddress=sales@quickstor.net
        Validity
            Not Before: Jul 20 20:21:17 2015 GMT
            Not After : Jul 17 20:21:17 2025 GMT
        Subject: C=EG, ST=Cairo, L=Cairo, O=QuickStor, OU=QStor, CN=Repliserv/name=EasyRSA/emailAddress=sales@quickstor.net
        Subject Public Key Info:
            Public Key Algorithm: rsaEncryption
                Public-Key: (2048 bit)
                Modulus:
                    00:bc:e3:e6:f3:8a:89:fa:7d:36:24:72:b9:64:64:
                    cf:37:0f:a9:51:74:31:45:36:bb:55:d3:66:1f:16:
                    89:11:c7:47:64:41:27:38:29:0a:a5:87:07:84:e3:
                    b7:e4:a6:be:aa:64:89:16:d9:00:42:83:e6:99:2a:
                    e2:09:09:fe:6b:38:a8:35:a7:91:c5:a3:be:60:3b:
                    41:6f:2d:fd:af:14:67:0a:72:af:e8:f2:43:98:d7:
                    3c:99:90:45:01:20:16:ae:84:f0:4e:22:37:61:73:
                    6f:ec:d8:15:75:84:f6:88:ba:75:53:76:e9:1e:53:
                    9f:76:d0:5a:11:2e:4e:b2:86:96:e4:9f:ce:23:ce:
                    36:1f:a7:ad:9c:02:9b:78:de:0a:74:1d:54:a0:ef:
                    3d:29:8b:d2:2b:05:29:6b:e5:4f:73:59:5c:76:1a:
                    d5:59:4d:66:87:0c:93:a9:c8:72:3f:f6:3b:08:7c:
                    64:c9:e8:94:ec:53:6b:3e:f2:26:a5:ef:d9:0e:a6:
                    ea:cf:df:c8:0e:fc:8a:c2:7c:17:c9:10:d8:ef:55:
                    11:b0:ed:40:56:fb:b1:52:87:12:8e:13:0d:04:4f:
                    4c:47:77:08:a8:20:5b:aa:97:19:9a:eb:97:21:18:
                    72:ed:57:bb:49:eb:3c:0b:fc:cb:bd:3e:61:15:9f:
                    e2:c5
                Exponent: 65537 (0x10001)
        X509v3 extensions:
            X509v3 Basic Constraints:
                CA:FALSE
            Netscape Comment:
                Easy-RSA Generated Certificate
            X509v3 Subject Key Identifier:
                A0:D1:A4:8D:11:EF:F3:9E:EA:98:70:39:4A:73:01:34:44:EE:61:0A
            X509v3 Authority Key Identifier:
                keyid:35:96:1D:B6:6F:08:6D:14:95:66:AB:18:C7:63:6B:B0:C0:0B:65:EC
                DirName:/C=EG/ST=Cairo/L=Cairo/O=QuickStor/OU=QStor/CN=QuickStor CA/name=EasyRSA/emailAddress=sales@quickstor.net
                serial:D8:22:35:2F:82:DA:44:DD

            X509v3 Extended Key Usage:
                TLS Web Client Authentication
            X509v3 Key Usage:
                Digital Signature
    Signature Algorithm: sha256WithRSAEncryption
         23:05:57:d6:37:22:f9:ce:80:0b:91:b8:a6:25:37:e0:e3:9c:
         fb:1e:dd:9a:83:ca:9a:c7:24:cf:df:78:3d:59:d8:75:eb:18:
         fa:9d:a2:5f:28:c6:b4:6f:76:44:fa:e9:26:ab:12:8b:1f:9c:
         2c:5b:37:44:90:33:29:33:c6:a7:10:11:66:48:b3:7e:c7:1b:
         21:a9:c2:d3:a8:f0:97:c7:42:35:f7:4d:95:b0:28:dc:79:5c:
         74:99:5a:13:62:ed:a7:7b:67:b2:9a:15:06:ff:b9:8c:61:6d:
         8d:25:bd:ec:bb:18:17:8f:c3:2d:f2:c6:1f:57:da:43:63:cc:
         32:a5:f5:b7:43:48:13:f6:83:c1:a7:c7:83:f0:fc:8f:12:26:
         64:b3:f4:7f:33:71:a2:a3:e5:9c:a5:bd:1d:f6:35:62:74:3c:
         96:2b:d5:b0:f0:42:67:c4:33:b3:3c:8c:cd:3a:b5:7c:16:25:
         8d:4a:fd:e1:a2:7b:52:de:66:1b:bd:b3:85:95:4e:b6:53:96:
         18:1d:61:63:9f:47:70:dc:3d:ed:44:a1:c9:6c:db:d6:c6:e5:
         a8:7e:dd:b3:0b:74:6c:22:f1:3a:1e:78:2c:c0:35:61:5f:06:
         d1:d8:f1:f0:12:bd:ab:4e:c7:c6:a8:6e:0a:59:f5:f8:e4:c7:
         2e:b2:36:b1
-----BEGIN CERTIFICATE-----
MIIFDTCCA/WgAwIBAgIBAjANBgkqhkiG9w0BAQsFADCBnjELMAkGA1UEBhMCRUcx
DjAMBgNVBAgTBUNhaXJvMQ4wDAYDVQQHEwVDYWlybzESMBAGA1UEChMJUXVpY2tT
dG9yMQ4wDAYDVQQLEwVRU3RvcjEVMBMGA1UEAxMMUXVpY2tTdG9yIENBMRAwDgYD
VQQpEwdFYXN5UlNBMSIwIAYJKoZIhvcNAQkBFhNzYWxlc0BxdWlja3N0b3IubmV0
MB4XDTE1MDcyMDIwMjExN1oXDTI1MDcxNzIwMjExN1owgZsxCzAJBgNVBAYTAkVH
MQ4wDAYDVQQIEwVDYWlybzEOMAwGA1UEBxMFQ2Fpcm8xEjAQBgNVBAoTCVF1aWNr
U3RvcjEOMAwGA1UECxMFUVN0b3IxEjAQBgNVBAMTCVJlcGxpc2VydjEQMA4GA1UE
KRMHRWFzeVJTQTEiMCAGCSqGSIb3DQEJARYTc2FsZXNAcXVpY2tzdG9yLm5ldDCC
ASIwDQYJKoZIhvcNAQEBBQADggEPADCCAQoCggEBALzj5vOKifp9NiRyuWRkzzcP
qVF0MUU2u1XTZh8WiRHHR2RBJzgpCqWHB4Tjt+SmvqpkiRbZAEKD5pkq4gkJ/ms4
qDWnkcWjvmA7QW8t/a8UZwpyr+jyQ5jXPJmQRQEgFq6E8E4iN2Fzb+zYFXWE9oi6
dVN26R5Tn3bQWhEuTrKGluSfziPONh+nrZwCm3jeCnQdVKDvPSmL0isFKWvlT3NZ
XHYa1VlNZocMk6nIcj/2Owh8ZMnolOxTaz7yJqXv2Q6m6s/fyA78isJ8F8kQ2O9V
EbDtQFb7sVKHEo4TDQRPTEd3CKggW6qXGZrrlyEYcu1Xu0nrPAv8y70+YRWf4sUC
AwEAAaOCAVUwggFRMAkGA1UdEwQCMAAwLQYJYIZIAYb4QgENBCAWHkVhc3ktUlNB
IEdlbmVyYXRlZCBDZXJ0aWZpY2F0ZTAdBgNVHQ4EFgQUoNGkjRHv857qmHA5SnMB
NETuYQowgdMGA1UdIwSByzCByIAUNZYdtm8IbRSVZqsYx2NrsMALZeyhgaSkgaEw
gZ4xCzAJBgNVBAYTAkVHMQ4wDAYDVQQIEwVDYWlybzEOMAwGA1UEBxMFQ2Fpcm8x
EjAQBgNVBAoTCVF1aWNrU3RvcjEOMAwGA1UECxMFUVN0b3IxFTATBgNVBAMTDFF1
aWNrU3RvciBDQTEQMA4GA1UEKRMHRWFzeVJTQTEiMCAGCSqGSIb3DQEJARYTc2Fs
ZXNAcXVpY2tzdG9yLm5ldIIJANgiNS+C2kTdMBMGA1UdJQQMMAoGCCsGAQUFBwMC
MAsGA1UdDwQEAwIHgDANBgkqhkiG9w0BAQsFAAOCAQEAIwVX1jci+c6AC5G4piU3
4OOc+x7dmoPKmsckz994PVnYdesY+p2iXyjGtG92RPrpJqsSix+cLFs3RJAzKTPG
pxARZkizfscbIanC06jwl8dCNfdNlbAo3HlcdJlaE2Ltp3tnspoVBv+5jGFtjSW9
7LsYF4/DLfLGH1faQ2PMMqX1t0NIE/aDwafHg/D8jxImZLP0fzNxoqPlnKW9HfY1
YnQ8livVsPBCZ8QzszyMzTq1fBYljUr94aJ7Ut5mG72zhZVOtlOWGB1hY59HcNw9
7UShyWzb1sblqH7dswt0bCLxOh54LMA1YV8G0djx8BK9q07HxqhuCln1+OTHLrI2
sQ==
-----END CERTIFICATE-----
