Certificate:
    Data:
        Version: 3 (0x2)
        Serial Number: 1 (0x1)
    Signature Algorithm: sha256WithRSAEncryption
        Issuer: C=EG, ST=PA, L=CAIRO, O=QuickStor, OU=Sales, CN=QuickStor CA/name=EasyRSA/emailAddress=sales@quickstor.net
        Validity
            Not Before: Jul 19 17:51:34 2015 GMT
            Not After : Jul 16 17:51:34 2025 GMT
        Subject: C=EG, ST=PA, L=CAIRO, O=QuickStor, OU=Sales, CN=Proxystor-quickstor.net/name=EasyRSA/emailAddress=sales@quickstor.net
        Subject Public Key Info:
            Public Key Algorithm: rsaEncryption
                Public-Key: (2048 bit)
                Modulus:
                    00:cb:0d:ce:f5:ab:e2:fa:0f:d8:62:9d:b7:dd:fd:
                    a5:e3:38:3c:1c:9d:f3:99:0f:36:63:8e:6e:eb:99:
                    be:6c:3b:b5:45:3c:7e:82:83:e4:fc:06:22:f0:f2:
                    ee:1e:6f:01:9e:2f:d8:83:2d:72:e3:bb:b9:55:0a:
                    9e:ae:6e:e5:28:e2:4e:98:6d:21:25:bf:cc:6c:97:
                    6a:ed:f7:5a:38:57:aa:a3:1e:e9:c5:08:84:2f:1c:
                    61:97:26:1c:6a:0a:2d:7e:db:84:ae:d5:79:a7:05:
                    39:ae:04:81:a0:6a:ff:23:5c:92:f6:eb:47:8b:b1:
                    b3:09:76:bc:da:c2:86:cc:ea:75:07:ed:6f:0a:c1:
                    35:5f:99:f6:a9:ab:8e:6c:92:3c:6d:f3:87:1f:3c:
                    df:b2:a4:87:6f:3b:00:98:b4:fe:bd:d0:d0:18:4f:
                    69:a2:72:d1:db:56:0d:f0:18:99:d8:2d:56:fc:c5:
                    94:dc:23:8b:42:72:e9:7f:e7:62:ca:9d:83:38:1a:
                    37:db:5c:a4:a1:df:06:37:1d:9c:82:92:b0:80:e0:
                    64:a4:8a:89:2d:23:b8:2a:1b:b8:1a:a2:06:2d:8c:
                    94:86:f9:d9:6a:86:84:bb:2b:ef:75:00:6c:58:4b:
                    27:43:80:98:e3:16:e7:c9:90:4a:68:66:7c:17:9b:
                    ab:61
                Exponent: 65537 (0x10001)
        X509v3 extensions:
            X509v3 Basic Constraints: 
                CA:FALSE
            Netscape Cert Type: 
                SSL Server
            Netscape Comment: 
                Easy-RSA Generated Server Certificate
            X509v3 Subject Key Identifier: 
                56:3E:1D:47:5B:2B:C9:07:25:B1:A4:B6:16:34:19:9B:CB:78:A1:CB
            X509v3 Authority Key Identifier: 
                keyid:25:2B:2F:4B:0E:9F:5C:B7:81:D6:27:32:81:10:56:AD:20:5C:96:ED
                DirName:/C=EG/ST=PA/L=CAIRO/O=QuickStor/OU=Sales/CN=QuickStor CA/name=EasyRSA/emailAddress=sales@quickstor.net
                serial:FA:B3:1A:22:7F:3A:34:C1

            X509v3 Extended Key Usage: 
                TLS Web Server Authentication
            X509v3 Key Usage: 
                Digital Signature, Key Encipherment
    Signature Algorithm: sha256WithRSAEncryption
         c5:5f:64:4e:cf:a0:2c:1c:4a:97:96:89:49:fb:d3:75:83:50:
         8f:27:fc:27:c1:8e:f5:b1:fb:dd:6f:76:74:1d:6d:21:ca:b0:
         ef:a1:fe:87:48:e1:ad:f3:89:0c:ed:6f:c8:06:52:6b:fe:70:
         95:6d:42:d8:c0:61:38:05:83:96:6e:43:80:e9:35:ad:a2:2c:
         f9:4e:42:57:85:2b:54:7b:c2:42:ed:95:89:36:00:13:d7:ff:
         a6:f8:f7:44:43:49:87:26:68:18:b2:ef:0f:52:30:e7:64:45:
         86:f3:6d:ee:f3:86:5c:ae:35:4e:0d:79:30:ac:9c:2c:3a:bc:
         0d:c3:47:a1:8d:5e:d0:4e:fe:6f:4b:7d:e9:72:83:90:87:67:
         47:74:8c:91:fe:84:0d:07:1e:e2:3a:ea:32:cd:47:35:1e:df:
         ef:07:cf:91:ec:15:6c:2d:a5:30:25:7e:82:37:9e:d5:9b:f7:
         1c:f6:36:ba:d7:a7:f2:e5:9b:eb:15:5c:50:ac:91:ce:2c:6b:
         56:d6:d1:0b:cc:ba:45:34:5c:c7:ad:e2:2c:29:40:aa:9f:03:
         6d:db:a5:2a:93:a9:d1:0a:1f:42:5d:bc:39:b8:bb:57:b6:a4:
         6e:96:d6:c8:c5:a9:fd:5c:cb:bf:dc:45:09:2e:25:79:31:d5:
         1f:c9:f4:e7
-----BEGIN CERTIFICATE-----
MIIFLDCCBBSgAwIBAgIBATANBgkqhkiG9w0BAQsFADCBmzELMAkGA1UEBhMCRUcx
CzAJBgNVBAgTAlBBMQ4wDAYDVQQHEwVDQUlSTzESMBAGA1UEChMJUXVpY2tTdG9y
MQ4wDAYDVQQLEwVTYWxlczEVMBMGA1UEAxMMUXVpY2tTdG9yIENBMRAwDgYDVQQp
EwdFYXN5UlNBMSIwIAYJKoZIhvcNAQkBFhNzYWxlc0BxdWlja3N0b3IubmV0MB4X
DTE1MDcxOTE3NTEzNFoXDTI1MDcxNjE3NTEzNFowgaYxCzAJBgNVBAYTAkVHMQsw
CQYDVQQIEwJQQTEOMAwGA1UEBxMFQ0FJUk8xEjAQBgNVBAoTCVF1aWNrU3RvcjEO
MAwGA1UECxMFU2FsZXMxIDAeBgNVBAMTF1Byb3h5c3Rvci1xdWlja3N0b3IubmV0
MRAwDgYDVQQpEwdFYXN5UlNBMSIwIAYJKoZIhvcNAQkBFhNzYWxlc0BxdWlja3N0
b3IubmV0MIIBIjANBgkqhkiG9w0BAQEFAAOCAQ8AMIIBCgKCAQEAyw3O9avi+g/Y
Yp233f2l4zg8HJ3zmQ82Y45u65m+bDu1RTx+goPk/AYi8PLuHm8Bni/Ygy1y47u5
VQqerm7lKOJOmG0hJb/MbJdq7fdaOFeqox7pxQiELxxhlyYcagotftuErtV5pwU5
rgSBoGr/I1yS9utHi7GzCXa82sKGzOp1B+1vCsE1X5n2qauObJI8bfOHHzzfsqSH
bzsAmLT+vdDQGE9ponLR21YN8BiZ2C1W/MWU3COLQnLpf+diyp2DOBo321ykod8G
Nx2cgpKwgOBkpIqJLSO4Khu4GqIGLYyUhvnZaoaEuyvvdQBsWEsnQ4CY4xbnyZBK
aGZ8F5urYQIDAQABo4IBbDCCAWgwCQYDVR0TBAIwADARBglghkgBhvhCAQEEBAMC
BkAwNAYJYIZIAYb4QgENBCcWJUVhc3ktUlNBIEdlbmVyYXRlZCBTZXJ2ZXIgQ2Vy
dGlmaWNhdGUwHQYDVR0OBBYEFFY+HUdbK8kHJbGkthY0GZvLeKHLMIHQBgNVHSME
gcgwgcWAFCUrL0sOn1y3gdYnMoEQVq0gXJbtoYGhpIGeMIGbMQswCQYDVQQGEwJF
RzELMAkGA1UECBMCUEExDjAMBgNVBAcTBUNBSVJPMRIwEAYDVQQKEwlRdWlja1N0
b3IxDjAMBgNVBAsTBVNhbGVzMRUwEwYDVQQDEwxRdWlja1N0b3IgQ0ExEDAOBgNV
BCkTB0Vhc3lSU0ExIjAgBgkqhkiG9w0BCQEWE3NhbGVzQHF1aWNrc3Rvci5uZXSC
CQD6sxoifzo0wTATBgNVHSUEDDAKBggrBgEFBQcDATALBgNVHQ8EBAMCBaAwDQYJ
KoZIhvcNAQELBQADggEBAMVfZE7PoCwcSpeWiUn703WDUI8n/CfBjvWx+91vdnQd
bSHKsO+h/odI4a3ziQztb8gGUmv+cJVtQtjAYTgFg5ZuQ4DpNa2iLPlOQleFK1R7
wkLtlYk2ABPX/6b490RDSYcmaBiy7w9SMOdkRYbzbe7zhlyuNU4NeTCsnCw6vA3D
R6GNXtBO/m9Lfelyg5CHZ0d0jJH+hA0HHuI66jLNRzUe3+8Hz5HsFWwtpTAlfoI3
ntWb9xz2NrrXp/Llm+sVXFCskc4sa1bW0QvMukU0XMet4iwpQKqfA23bpSqTqdEK
H0JdvDm4u1e2pG6W1sjFqf1cy7/cRQkuJXkx1R/J9Oc=
-----END CERTIFICATE-----
